target datalayout = "e-m:e-p270:32:32-p271:32:32-p272:64:64-i64:64-i128:128-f80:128-n8:16:32:64-S128"
target triple = "x86_64-pc-linux-gnu"

%struct.mbedtls_poly1305_context = type { [4 x i32], [4 x i32], [5 x i32], [16 x i8], i64 }

; Function Attrs: alwaysinline nounwind uwtable
define internal i32 @mbedtls_get_unaligned_uint32(ptr noundef %0) #2 {
  %2 = alloca ptr, align 8
  %3 = alloca i32, align 4
  store ptr %0, ptr %2, align 8, !tbaa !15
  call void @llvm.lifetime.start.p0(i64 4, ptr %3) #8
  %4 = load ptr, ptr %2, align 8, !tbaa !15
  call void @llvm.memcpy.p0.p0.i64(ptr align 4 %3, ptr align 1 %4, i64 4, i1 false)
  %5 = load i32, ptr %3, align 4, !tbaa !10
  call void @llvm.lifetime.end.p0(i64 4, ptr %3) #8
  ret i32 %5
}

; Function Attrs: nounwind uwtable
define hidden void @mbedtls_poly1305_free(ptr noundef %0) #0 {
  %2 = alloca ptr, align 8
  store ptr %0, ptr %2, align 8, !tbaa !3
  %3 = load ptr, ptr %2, align 8, !tbaa !3
  %4 = icmp eq ptr %3, null
  br i1 %4, label %5, label %6

5:                                                ; preds = %1
  br label %8

6:                                                ; preds = %1
  %7 = load ptr, ptr %2, align 8, !tbaa !3
  call void @mbedtls_platform_zeroize(ptr noundef %7, i64 noundef 80)
  br label %8

8:                                                ; preds = %6, %5
  ret void
}

; Function Attrs: nounwind uwtable
define hidden i32 @mbedtls_poly1305_update(ptr noundef %0, ptr noundef %1, i64 noundef %2) #0 {
  %4 = alloca ptr, align 8
  %5 = alloca ptr, align 8
  %6 = alloca i64, align 8
  %7 = alloca i64, align 8
  %8 = alloca i64, align 8
  %9 = alloca i64, align 8
  %10 = alloca i64, align 8
  store ptr %0, ptr %4, align 8, !tbaa !3
  store ptr %1, ptr %5, align 8, !tbaa !8
  store i64 %2, ptr %6, align 8, !tbaa !16
  call void @llvm.lifetime.start.p0(i64 8, ptr %7) #8
  store i64 0, ptr %7, align 8, !tbaa !16
  call void @llvm.lifetime.start.p0(i64 8, ptr %8) #8
  %11 = load i64, ptr %6, align 8, !tbaa !16
  store i64 %11, ptr %8, align 8, !tbaa !16
  call void @llvm.lifetime.start.p0(i64 8, ptr %9) #8
  call void @llvm.lifetime.start.p0(i64 8, ptr %10) #8
  %12 = load i64, ptr %8, align 8, !tbaa !16
  %13 = icmp ugt i64 %12, 0
  br i1 %13, label %14, label %63

14:                                               ; preds = %3
  %15 = load ptr, ptr %4, align 8, !tbaa !3
  %16 = getelementptr inbounds nuw %struct.mbedtls_poly1305_context, ptr %15, i32 0, i32 4
  %17 = load i64, ptr %16, align 8, !tbaa !12
  %18 = icmp ugt i64 %17, 0
  br i1 %18, label %19, label %63

19:                                               ; preds = %14
  %20 = load ptr, ptr %4, align 8, !tbaa !3
  %21 = getelementptr inbounds nuw %struct.mbedtls_poly1305_context, ptr %20, i32 0, i32 4
  %22 = load i64, ptr %21, align 8, !tbaa !12
  %23 = sub i64 16, %22
  store i64 %23, ptr %9, align 8, !tbaa !16
  %24 = load i64, ptr %6, align 8, !tbaa !16
  %25 = load i64, ptr %9, align 8, !tbaa !16
  %26 = icmp ult i64 %24, %25
  br i1 %26, label %27, label %41

27:                                               ; preds = %19
  %28 = load ptr, ptr %4, align 8, !tbaa !3
  %29 = getelementptr inbounds nuw %struct.mbedtls_poly1305_context, ptr %28, i32 0, i32 3
  %30 = load ptr, ptr %4, align 8, !tbaa !3
  %31 = getelementptr inbounds nuw %struct.mbedtls_poly1305_context, ptr %30, i32 0, i32 4
  %32 = load i64, ptr %31, align 8, !tbaa !12
  %33 = getelementptr inbounds nuw [16 x i8], ptr %29, i64 0, i64 %32
  %34 = load ptr, ptr %5, align 8, !tbaa !8
  %35 = load i64, ptr %6, align 8, !tbaa !16
  call void @llvm.memcpy.p0.p0.i64(ptr align 1 %33, ptr align 1 %34, i64 %35, i1 false)
  %36 = load i64, ptr %6, align 8, !tbaa !16
  %37 = load ptr, ptr %4, align 8, !tbaa !3
  %38 = getelementptr inbounds nuw %struct.mbedtls_poly1305_context, ptr %37, i32 0, i32 4
  %39 = load i64, ptr %38, align 8, !tbaa !12
  %40 = add i64 %39, %36
  store i64 %40, ptr %38, align 8, !tbaa !12
  store i64 0, ptr %8, align 8, !tbaa !16
  br label %62

41:                                               ; preds = %19
  %42 = load ptr, ptr %4, align 8, !tbaa !3
  %43 = getelementptr inbounds nuw %struct.mbedtls_poly1305_context, ptr %42, i32 0, i32 3
  %44 = load ptr, ptr %4, align 8, !tbaa !3
  %45 = getelementptr inbounds nuw %struct.mbedtls_poly1305_context, ptr %44, i32 0, i32 4
  %46 = load i64, ptr %45, align 8, !tbaa !12
  %47 = getelementptr inbounds nuw [16 x i8], ptr %43, i64 0, i64 %46
  %48 = load ptr, ptr %5, align 8, !tbaa !8
  %49 = load i64, ptr %9, align 8, !tbaa !16
  call void @llvm.memcpy.p0.p0.i64(ptr align 1 %47, ptr align 1 %48, i64 %49, i1 false)
  %50 = load ptr, ptr %4, align 8, !tbaa !3
  %51 = getelementptr inbounds nuw %struct.mbedtls_poly1305_context, ptr %50, i32 0, i32 4
  store i64 0, ptr %51, align 8, !tbaa !12
  %52 = load ptr, ptr %4, align 8, !tbaa !3
  %53 = load ptr, ptr %4, align 8, !tbaa !3
  %54 = getelementptr inbounds nuw %struct.mbedtls_poly1305_context, ptr %53, i32 0, i32 3
  %55 = getelementptr inbounds [16 x i8], ptr %54, i64 0, i64 0
  call void @poly1305_process(ptr noundef %52, i64 noundef 1, ptr noundef %55, i32 noundef 1)
  %56 = load i64, ptr %9, align 8, !tbaa !16
  %57 = load i64, ptr %7, align 8, !tbaa !16
  %58 = add i64 %57, %56
  store i64 %58, ptr %7, align 8, !tbaa !16
  %59 = load i64, ptr %9, align 8, !tbaa !16
  %60 = load i64, ptr %8, align 8, !tbaa !16
  %61 = sub i64 %60, %59
  store i64 %61, ptr %8, align 8, !tbaa !16
  br label %62

62:                                               ; preds = %41, %27
  br label %63

63:                                               ; preds = %62, %14, %3
  %64 = load i64, ptr %8, align 8, !tbaa !16
  %65 = icmp uge i64 %64, 16
  br i1 %65, label %66, label %80

66:                                               ; preds = %63
  %67 = load i64, ptr %8, align 8, !tbaa !16
  %68 = udiv i64 %67, 16
  store i64 %68, ptr %10, align 8, !tbaa !16
  %69 = load ptr, ptr %4, align 8, !tbaa !3
  %70 = load i64, ptr %10, align 8, !tbaa !16
  %71 = load ptr, ptr %5, align 8, !tbaa !8
  %72 = load i64, ptr %7, align 8, !tbaa !16
  %73 = getelementptr inbounds nuw i8, ptr %71, i64 %72
  call void @poly1305_process(ptr noundef %69, i64 noundef %70, ptr noundef %73, i32 noundef 1)
  %74 = load i64, ptr %10, align 8, !tbaa !16
  %75 = mul i64 %74, 16
  %76 = load i64, ptr %7, align 8, !tbaa !16
  %77 = add i64 %76, %75
  store i64 %77, ptr %7, align 8, !tbaa !16
  %78 = load i64, ptr %8, align 8, !tbaa !16
  %79 = urem i64 %78, 16
  store i64 %79, ptr %8, align 8, !tbaa !16
  br label %80

80:                                               ; preds = %66, %63
  %81 = load i64, ptr %8, align 8, !tbaa !16
  %82 = icmp ugt i64 %81, 0
  br i1 %82, label %83, label %94

83:                                               ; preds = %80
  %84 = load i64, ptr %8, align 8, !tbaa !16
  %85 = load ptr, ptr %4, align 8, !tbaa !3
  %86 = getelementptr inbounds nuw %struct.mbedtls_poly1305_context, ptr %85, i32 0, i32 4
  store i64 %84, ptr %86, align 8, !tbaa !12
  %87 = load ptr, ptr %4, align 8, !tbaa !3
  %88 = getelementptr inbounds nuw %struct.mbedtls_poly1305_context, ptr %87, i32 0, i32 3
  %89 = getelementptr inbounds [16 x i8], ptr %88, i64 0, i64 0
  %90 = load ptr, ptr %5, align 8, !tbaa !8
  %91 = load i64, ptr %7, align 8, !tbaa !16
  %92 = getelementptr inbounds nuw i8, ptr %90, i64 %91
  %93 = load i64, ptr %8, align 8, !tbaa !16
  call void @llvm.memcpy.p0.p0.i64(ptr align 4 %89, ptr align 1 %92, i64 %93, i1 false)
  br label %94

94:                                               ; preds = %83, %80
  call void @llvm.lifetime.end.p0(i64 8, ptr %10) #8
  call void @llvm.lifetime.end.p0(i64 8, ptr %9) #8
  call void @llvm.lifetime.end.p0(i64 8, ptr %8) #8
  call void @llvm.lifetime.end.p0(i64 8, ptr %7) #8
  ret i32 0
}

; Function Attrs: nounwind uwtable
define hidden i32 @mbedtls_poly1305_starts(ptr noundef %0, ptr noundef %1) #0 {
  %3 = alloca ptr, align 8
  %4 = alloca ptr, align 8
  store ptr %0, ptr %3, align 8, !tbaa !3
  store ptr %1, ptr %4, align 8, !tbaa !8
  %5 = load ptr, ptr %4, align 8, !tbaa !8
  %6 = getelementptr inbounds i8, ptr %5, i64 0
  %7 = call i32 @mbedtls_get_unaligned_uint32(ptr noundef %6)
  %8 = and i32 %7, 268435455
  %9 = load ptr, ptr %3, align 8, !tbaa !3
  %10 = getelementptr inbounds nuw %struct.mbedtls_poly1305_context, ptr %9, i32 0, i32 0
  %11 = getelementptr inbounds [4 x i32], ptr %10, i64 0, i64 0
  store i32 %8, ptr %11, align 8, !tbaa !10
  %12 = load ptr, ptr %4, align 8, !tbaa !8
  %13 = getelementptr inbounds i8, ptr %12, i64 4
  %14 = call i32 @mbedtls_get_unaligned_uint32(ptr noundef %13)
  %15 = and i32 %14, 268435452
  %16 = load ptr, ptr %3, align 8, !tbaa !3
  %17 = getelementptr inbounds nuw %struct.mbedtls_poly1305_context, ptr %16, i32 0, i32 0
  %18 = getelementptr inbounds [4 x i32], ptr %17, i64 0, i64 1
  store i32 %15, ptr %18, align 4, !tbaa !10
  %19 = load ptr, ptr %4, align 8, !tbaa !8
  %20 = getelementptr inbounds i8, ptr %19, i64 8
  %21 = call i32 @mbedtls_get_unaligned_uint32(ptr noundef %20)
  %22 = and i32 %21, 268435452
  %23 = load ptr, ptr %3, align 8, !tbaa !3
  %24 = getelementptr inbounds nuw %struct.mbedtls_poly1305_context, ptr %23, i32 0, i32 0
  %25 = getelementptr inbounds [4 x i32], ptr %24, i64 0, i64 2
  store i32 %22, ptr %25, align 8, !tbaa !10
  %26 = load ptr, ptr %4, align 8, !tbaa !8
  %27 = getelementptr inbounds i8, ptr %26, i64 12
  %28 = call i32 @mbedtls_get_unaligned_uint32(ptr noundef %27)
  %29 = and i32 %28, 268435452
  %30 = load ptr, ptr %3, align 8, !tbaa !3
  %31 = getelementptr inbounds nuw %struct.mbedtls_poly1305_context, ptr %30, i32 0, i32 0
  %32 = getelementptr inbounds [4 x i32], ptr %31, i64 0, i64 3
  store i32 %29, ptr %32, align 4, !tbaa !10
  %33 = load ptr, ptr %4, align 8, !tbaa !8
  %34 = getelementptr inbounds i8, ptr %33, i64 16
  %35 = call i32 @mbedtls_get_unaligned_uint32(ptr noundef %34)
  %36 = load ptr, ptr %3, align 8, !tbaa !3
  %37 = getelementptr inbounds nuw %struct.mbedtls_poly1305_context, ptr %36, i32 0, i32 1
  %38 = getelementptr inbounds [4 x i32], ptr %37, i64 0, i64 0
  store i32 %35, ptr %38, align 8, !tbaa !10
  %39 = load ptr, ptr %4, align 8, !tbaa !8
  %40 = getelementptr inbounds i8, ptr %39, i64 20
  %41 = call i32 @mbedtls_get_unaligned_uint32(ptr noundef %40)
  %42 = load ptr, ptr %3, align 8, !tbaa !3
  %43 = getelementptr inbounds nuw %struct.mbedtls_poly1305_context, ptr %42, i32 0, i32 1
  %44 = getelementptr inbounds [4 x i32], ptr %43, i64 0, i64 1
  store i32 %41, ptr %44, align 4, !tbaa !10
  %45 = load ptr, ptr %4, align 8, !tbaa !8
  %46 = getelementptr inbounds i8, ptr %45, i64 24
  %47 = call i32 @mbedtls_get_unaligned_uint32(ptr noundef %46)
  %48 = load ptr, ptr %3, align 8, !tbaa !3
  %49 = getelementptr inbounds nuw %struct.mbedtls_poly1305_context, ptr %48, i32 0, i32 1
  %50 = getelementptr inbounds [4 x i32], ptr %49, i64 0, i64 2
  store i32 %47, ptr %50, align 8, !tbaa !10
  %51 = load ptr, ptr %4, align 8, !tbaa !8
  %52 = getelementptr inbounds i8, ptr %51, i64 28
  %53 = call i32 @mbedtls_get_unaligned_uint32(ptr noundef %52)
  %54 = load ptr, ptr %3, align 8, !tbaa !3
  %55 = getelementptr inbounds nuw %struct.mbedtls_poly1305_context, ptr %54, i32 0, i32 1
  %56 = getelementptr inbounds [4 x i32], ptr %55, i64 0, i64 3
  store i32 %53, ptr %56, align 4, !tbaa !10
  %57 = load ptr, ptr %3, align 8, !tbaa !3
  %58 = getelementptr inbounds nuw %struct.mbedtls_poly1305_context, ptr %57, i32 0, i32 2
  %59 = getelementptr inbounds [5 x i32], ptr %58, i64 0, i64 0
  store i32 0, ptr %59, align 8, !tbaa !10
  %60 = load ptr, ptr %3, align 8, !tbaa !3
  %61 = getelementptr inbounds nuw %struct.mbedtls_poly1305_context, ptr %60, i32 0, i32 2
  %62 = getelementptr inbounds [5 x i32], ptr %61, i64 0, i64 1
  store i32 0, ptr %62, align 4, !tbaa !10
  %63 = load ptr, ptr %3, align 8, !tbaa !3
  %64 = getelementptr inbounds nuw %struct.mbedtls_poly1305_context, ptr %63, i32 0, i32 2
  %65 = getelementptr inbounds [5 x i32], ptr %64, i64 0, i64 2
  store i32 0, ptr %65, align 8, !tbaa !10
  %66 = load ptr, ptr %3, align 8, !tbaa !3
  %67 = getelementptr inbounds nuw %struct.mbedtls_poly1305_context, ptr %66, i32 0, i32 2
  %68 = getelementptr inbounds [5 x i32], ptr %67, i64 0, i64 3
  store i32 0, ptr %68, align 4, !tbaa !10
  %69 = load ptr, ptr %3, align 8, !tbaa !3
  %70 = getelementptr inbounds nuw %struct.mbedtls_poly1305_context, ptr %69, i32 0, i32 2
  %71 = getelementptr inbounds [5 x i32], ptr %70, i64 0, i64 4
  store i32 0, ptr %71, align 8, !tbaa !10
  %72 = load ptr, ptr %3, align 8, !tbaa !3
  %73 = getelementptr inbounds nuw %struct.mbedtls_poly1305_context, ptr %72, i32 0, i32 3
  %74 = getelementptr inbounds [16 x i8], ptr %73, i64 0, i64 0
  call void @mbedtls_platform_zeroize(ptr noundef %74, i64 noundef 16)
  %75 = load ptr, ptr %3, align 8, !tbaa !3
  %76 = getelementptr inbounds nuw %struct.mbedtls_poly1305_context, ptr %75, i32 0, i32 4
  store i64 0, ptr %76, align 8, !tbaa !12
  ret i32 0
}

; Function Attrs: nounwind uwtable
define hidden void @mbedtls_poly1305_init(ptr noundef %0) #0 {
  %2 = alloca ptr, align 8
  store ptr %0, ptr %2, align 8, !tbaa !3
  %3 = load ptr, ptr %2, align 8, !tbaa !3
  call void @mbedtls_platform_zeroize(ptr noundef %3, i64 noundef 80)
  ret void
}

; Function Attrs: nounwind uwtable
define hidden i32 @mbedtls_poly1305_mac(ptr noundef %0, ptr noundef %1, i64 noundef %2, ptr noundef %3) #0 {
  %5 = alloca ptr, align 8
  %6 = alloca ptr, align 8
  %7 = alloca i64, align 8
  %8 = alloca ptr, align 8
  %9 = alloca %struct.mbedtls_poly1305_context, align 8
  %10 = alloca i32, align 4
  store ptr %0, ptr %5, align 8, !tbaa !8
  store ptr %1, ptr %6, align 8, !tbaa !8
  store i64 %2, ptr %7, align 8, !tbaa !16
  store ptr %3, ptr %8, align 8, !tbaa !8
  call void @llvm.lifetime.start.p0(i64 80, ptr %9) #8
  call void @llvm.lifetime.start.p0(i64 4, ptr %10) #8
  store i32 -110, ptr %10, align 4, !tbaa !10
  call void @mbedtls_poly1305_init(ptr noundef %9)
  %11 = load ptr, ptr %5, align 8, !tbaa !8
  %12 = call i32 @mbedtls_poly1305_starts(ptr noundef %9, ptr noundef %11)
  store i32 %12, ptr %10, align 4, !tbaa !10
  %13 = load i32, ptr %10, align 4, !tbaa !10
  %14 = icmp ne i32 %13, 0
  br i1 %14, label %15, label %16

15:                                               ; preds = %4
  br label %26

16:                                               ; preds = %4
  %17 = load ptr, ptr %6, align 8, !tbaa !8
  %18 = load i64, ptr %7, align 8, !tbaa !16
  %19 = call i32 @mbedtls_poly1305_update(ptr noundef %9, ptr noundef %17, i64 noundef %18)
  store i32 %19, ptr %10, align 4, !tbaa !10
  %20 = load i32, ptr %10, align 4, !tbaa !10
  %21 = icmp ne i32 %20, 0
  br i1 %21, label %22, label %23

22:                                               ; preds = %16
  br label %26

23:                                               ; preds = %16
  %24 = load ptr, ptr %8, align 8, !tbaa !8
  %25 = call i32 @mbedtls_poly1305_finish(ptr noundef %9, ptr noundef %24)
  store i32 %25, ptr %10, align 4, !tbaa !10
  br label %26

26:                                               ; preds = %23, %22, %15
  call void @mbedtls_poly1305_free(ptr noundef %9)
  %27 = load i32, ptr %10, align 4, !tbaa !10
  call void @llvm.lifetime.end.p0(i64 4, ptr %10) #8
  call void @llvm.lifetime.end.p0(i64 80, ptr %9) #8
  ret i32 %27
}