; Function Attrs: nounwind uwtable
define hidden noundef i32 @mbedtls_poly1305_mac(ptr noundef readonly captures(none) %0, ptr noundef readonly captures(none) %1, i64 noundef %2, ptr noundef writeonly captures(none) initializes((0, 16)) %3) local_unnamed_addr #0 {
  %5 = alloca %struct.mbedtls_poly1305_context, align 8
  call void @llvm.lifetime.start.p0(i64 80, ptr nonnull %5) #9
  call void @mbedtls_platform_zeroize(ptr noundef nonnull %5, i64 noundef 80) #9
  %.0.copyload.i.i = load i32, ptr %0, align 1
  %6 = and i32 %.0.copyload.i.i, 268435455
  store i32 %6, ptr %5, align 8, !tbaa !3
  %7 = getelementptr inbounds nuw i8, ptr %0, i64 4
  %.0.copyload.i23.i = load i32, ptr %7, align 1
  %8 = and i32 %.0.copyload.i23.i, 268435452
  %9 = getelementptr inbounds nuw i8, ptr %5, i64 4
  store i32 %8, ptr %9, align 4, !tbaa !3
  %10 = getelementptr inbounds nuw i8, ptr %0, i64 8
  %.0.copyload.i24.i = load i32, ptr %10, align 1
  %11 = and i32 %.0.copyload.i24.i, 268435452
  %12 = getelementptr inbounds nuw i8, ptr %5, i64 8
  store i32 %11, ptr %12, align 8, !tbaa !3
  %13 = getelementptr inbounds nuw i8, ptr %0, i64 12
  %.0.copyload.i25.i = load i32, ptr %13, align 1
  %14 = and i32 %.0.copyload.i25.i, 268435452
  %15 = getelementptr inbounds nuw i8, ptr %5, i64 12
  store i32 %14, ptr %15, align 4, !tbaa !3
  %16 = getelementptr inbounds nuw i8, ptr %0, i64 16
  %.0.copyload.i26.i = load i32, ptr %16, align 1
  %17 = getelementptr inbounds nuw i8, ptr %5, i64 16
  store i32 %.0.copyload.i26.i, ptr %17, align 8, !tbaa !3
  %18 = getelementptr inbounds nuw i8, ptr %0, i64 20
  %.0.copyload.i27.i = load i32, ptr %18, align 1
  %19 = getelementptr inbounds nuw i8, ptr %5, i64 20
  store i32 %.0.copyload.i27.i, ptr %19, align 4, !tbaa !3
  %20 = getelementptr inbounds nuw i8, ptr %0, i64 24
  %.0.copyload.i28.i = load i32, ptr %20, align 1
  %21 = getelementptr inbounds nuw i8, ptr %5, i64 24
  store i32 %.0.copyload.i28.i, ptr %21, align 8, !tbaa !3
  %22 = getelementptr inbounds nuw i8, ptr %0, i64 28
  %.0.copyload.i29.i = load i32, ptr %22, align 1
  %23 = getelementptr inbounds nuw i8, ptr %5, i64 28
  store i32 %.0.copyload.i29.i, ptr %23, align 4, !tbaa !3
  %24 = getelementptr inbounds nuw i8, ptr %5, i64 32
  %25 = getelementptr inbounds nuw i8, ptr %5, i64 52
  call void @llvm.memset.p0.i64(ptr noundef nonnull align 8 dereferenceable(20) %24, i8 0, i64 20, i1 false)
  call void @mbedtls_platform_zeroize(ptr noundef nonnull %25, i64 noundef 16) #9
  %26 = getelementptr inbounds nuw i8, ptr %5, i64 72
  store i64 0, ptr %26, align 8, !tbaa !7
  %.not.i = icmp eq i64 %2, 0
  br i1 %.not.i, label %mbedtls_poly1305_update.exit, label %27

27:                                               ; preds = %4
  %28 = icmp ugt i64 %2, 15
  br i1 %28, label %29, label %.thread

29:                                               ; preds = %27
  %30 = lshr i64 %2, 4
  call fastcc void @poly1305_process(ptr noundef nonnull %5, i64 noundef %30, ptr noundef readonly %1, i32 noundef 1)
  %31 = and i64 %2, -16
  %32 = and i64 %2, 15
  %.not45.i = icmp eq i64 %32, 0
  br i1 %.not45.i, label %mbedtls_poly1305_update.exit, label %.thread

.thread:                                          ; preds = %27, %29
  %.1.i12 = phi i64 [ %31, %29 ], [ 0, %27 ]
  %.139.i11 = phi i64 [ %32, %29 ], [ %2, %27 ]
  store i64 %.139.i11, ptr %26, align 8, !tbaa !7
  %33 = getelementptr inbounds nuw i8, ptr %1, i64 %.1.i12
  call void @llvm.memcpy.p0.p0.i64(ptr nonnull align 4 %25, ptr readonly align 1 %33, i64 %.139.i11, i1 false)
  br label %mbedtls_poly1305_update.exit

mbedtls_poly1305_update.exit:                     ; preds = %4, %29, %.thread
  %34 = call i32 @mbedtls_poly1305_finish(ptr noundef nonnull %5, ptr noundef %3)
  call void @mbedtls_platform_zeroize(ptr noundef nonnull %5, i64 noundef 80) #9
  call void @llvm.lifetime.end.p0(i64 80, ptr nonnull %5) #9
  ret i32 0
}